; Function Attrs: mustprogress nounwind uwtable
define dso_local { i32, ptr } @_ZNK4llvm3vfs10FileSystem12makeAbsoluteERNS_15SmallVectorImplIcEE(ptr noundef nonnull align 8 dereferenceable(12) %0, ptr noundef nonnull align 8 dereferenceable(24) %1) unnamed_addr #0 align 2 {
  %3 = alloca %"class.llvm::Twine", align 8
  %4 = alloca %"class.llvm::ErrorOr.8", align 8
  %5 = alloca %"class.llvm::Twine", align 8
  %6 = getelementptr inbounds nuw i8, ptr %3, i64 32
  store i8 5, ptr %6, align 8
  %7 = getelementptr inbounds nuw i8, ptr %3, i64 33
  store i8 1, ptr %7, align 1
  %8 = load ptr, ptr %1, align 8
  store ptr %8, ptr %3, align 8
  %9 = tail call noundef i64 @_ZNK4llvm15SmallVectorBaseImE4sizeEv(ptr noundef nonnull align 8 dereferenceable(24) %1) #27
  %10 = getelementptr inbounds nuw i8, ptr %3, i64 8
  store i64 %9, ptr %10, align 8
  %11 = call noundef zeroext i1 @_ZN4llvm3sys4path11is_absoluteERKNS_5TwineENS1_5StyleE(ptr noundef nonnull align 8 dereferenceable(34) %3, i32 noundef 0) #27
  br i1 %11, label %12, label %14

12:                                               ; preds = %2
  %13 = tail call noundef nonnull align 8 dereferenceable(8) ptr @_ZNSt3_V215system_categoryEv() #29
  br label %_ZN4llvm7ErrorOrINSt7__cxx1112basic_stringIcSt11char_traitsIcESaIcEEEED2Ev.exit

14:                                               ; preds = %2
  %15 = load ptr, ptr %0, align 8
  %16 = getelementptr inbounds i8, ptr %15, i64 72
  %17 = load ptr, ptr %16, align 8
  call void %17(ptr dead_on_unwind nonnull writable sret(%"class.llvm::ErrorOr.8") align 8 %4, ptr noundef nonnull align 8 dereferenceable(12) %0) #27
  %18 = getelementptr inbounds nuw i8, ptr %4, i64 32
  %19 = load i8, ptr %18, align 8
  %20 = trunc i8 %19 to i1
  br i1 %20, label %_ZNK4llvm7ErrorOrINSt7__cxx1112basic_stringIcSt11char_traitsIcESaIcEEEE8getErrorEv.exit, label %21

_ZNK4llvm7ErrorOrINSt7__cxx1112basic_stringIcSt11char_traitsIcESaIcEEEE8getErrorEv.exit: ; preds = %14
  %.sroa.0.0.copyload.i = load i32, ptr %4, align 8
  %.sroa.31.0..sroa_idx.i = getelementptr inbounds i8, ptr %4, i64 8
  %.sroa.31.0.copyload.i = load ptr, ptr %.sroa.31.0..sroa_idx.i, align 8
  br label %25

21:                                               ; preds = %14
  %22 = getelementptr inbounds nuw i8, ptr %5, i64 32
  store i8 4, ptr %22, align 8
  %23 = getelementptr inbounds nuw i8, ptr %5, i64 33
  store i8 1, ptr %23, align 1
  store ptr %4, ptr %5, align 8
  call void @_ZN4llvm3sys2fs13make_absoluteERKNS_5TwineERNS_15SmallVectorImplIcEE(ptr noundef nonnull align 8 dereferenceable(34) %5, ptr noundef nonnull align 8 dereferenceable(24) %1) #27
  %24 = tail call noundef nonnull align 8 dereferenceable(8) ptr @_ZNSt3_V215system_categoryEv() #29
  %.pre = load i8, ptr %18, align 8
  br label %25

25:                                               ; preds = %21, %_ZNK4llvm7ErrorOrINSt7__cxx1112basic_stringIcSt11char_traitsIcESaIcEEEE8getErrorEv.exit
  %26 = phi i8 [ %.pre, %21 ], [ %19, %_ZNK4llvm7ErrorOrINSt7__cxx1112basic_stringIcSt11char_traitsIcESaIcEEEE8getErrorEv.exit ]
  %.sroa.4.1 = phi ptr [ %24, %21 ], [ %.sroa.31.0.copyload.i, %_ZNK4llvm7ErrorOrINSt7__cxx1112basic_stringIcSt11char_traitsIcESaIcEEEE8getErrorEv.exit ]
  %.sroa.0.1 = phi i32 [ 0, %21 ], [ %.sroa.0.0.copyload.i, %_ZNK4llvm7ErrorOrINSt7__cxx1112basic_stringIcSt11char_traitsIcESaIcEEEE8getErrorEv.exit ]
  %27 = trunc i8 %26 to i1
  br i1 %27, label %_ZN4llvm7ErrorOrINSt7__cxx1112basic_stringIcSt11char_traitsIcESaIcEEEED2Ev.exit, label %28

28:                                               ; preds = %25
  call void @_ZNSt7__cxx1112basic_stringIcSt11char_traitsIcESaIcEED1Ev(ptr noundef nonnull align 8 dereferenceable(32) %4) #27
  br label %_ZN4llvm7ErrorOrINSt7__cxx1112basic_stringIcSt11char_traitsIcESaIcEEEED2Ev.exit

_ZN4llvm7ErrorOrINSt7__cxx1112basic_stringIcSt11char_traitsIcESaIcEEEED2Ev.exit: ; preds = %28, %25, %12
  %.sroa.4.0 = phi ptr [ %13, %12 ], [ %.sroa.4.1, %25 ], [ %.sroa.4.1, %28 ]
  %.sroa.0.0 = phi i32 [ 0, %12 ], [ %.sroa.0.1, %25 ], [ %.sroa.0.1, %28 ]
  %.fca.0.insert = insertvalue { i32, ptr } poison, i32 %.sroa.0.0, 0
  %.fca.1.insert = insertvalue { i32, ptr } %.fca.0.insert, ptr %.sroa.4.0, 1
  ret { i32, ptr } %.fca.1.insert
}